; Function Attrs: nounwind uwtable
define hidden i32 @psa_driver_wrapper_hash_finish(ptr noundef %0, ptr noundef %1, i64 noundef %2, ptr noundef %3) local_unnamed_addr #1 {
  %5 = load i32, ptr %0, align 8
  %cond = icmp eq i32 %5, 1
  br i1 %cond, label %6, label %9

6:                                                ; preds = %4
  %7 = getelementptr inbounds nuw i8, ptr %0, i64 8
  %8 = tail call i32 @mbedtls_psa_hash_finish(ptr noundef nonnull %7, ptr noundef %1, i64 noundef %2, ptr noundef %3) #5
  br label %9

9:                                                ; preds = %4, %6
  %.0 = phi i32 [ %8, %6 ], [ -137, %4 ]
  ret i32 %.0
}